; Function Attrs: mustprogress uwtable
define void @_ZN5arrow8internal14SerialExecutor6FinishEv(ptr noundef nonnull readonly align 8 captures(none) dereferenceable(24) %0) local_unnamed_addr #3 align 2 personality ptr @__gxx_personality_v0 {
  %2 = alloca %"class.std::shared_ptr.0", align 8
  call void @llvm.lifetime.start.p0(i64 16, ptr nonnull %2) #33
  %3 = getelementptr inbounds nuw i8, ptr %0, i64 8
  %4 = load ptr, ptr %3, align 8, !tbaa !38
  store ptr %4, ptr %2, align 8, !tbaa !38
  %5 = getelementptr inbounds nuw i8, ptr %2, i64 8
  %6 = getelementptr inbounds nuw i8, ptr %0, i64 16
  %7 = load ptr, ptr %6, align 8, !tbaa !33
  store ptr %7, ptr %5, align 8, !tbaa !33
  %.not.i.i.i = icmp eq ptr %7, null
  br i1 %.not.i.i.i, label %_ZNSt10shared_ptrIN5arrow8internal14SerialExecutor5StateEEC2ERKS4_.exit, label %8

8:                                                ; preds = %1
  %9 = getelementptr inbounds nuw i8, ptr %7, i64 8
  %10 = load i8, ptr @__libc_single_threaded, align 1, !tbaa !40
  %.not.i.i.i.i = icmp eq i8 %10, 0
  br i1 %.not.i.i.i.i, label %14, label %11

11:                                               ; preds = %8
  %12 = load i32, ptr %9, align 4, !tbaa !41
  %13 = add nsw i32 %12, 1
  store i32 %13, ptr %9, align 4, !tbaa !41
  br label %_ZNSt10shared_ptrIN5arrow8internal14SerialExecutor5StateEEC2ERKS4_.exit

14:                                               ; preds = %8
  %15 = atomicrmw volatile add ptr %9, i32 1 acq_rel, align 4
  %.pre = load ptr, ptr %2, align 8, !tbaa !38
  br label %_ZNSt10shared_ptrIN5arrow8internal14SerialExecutor5StateEEC2ERKS4_.exit

_ZNSt10shared_ptrIN5arrow8internal14SerialExecutor5StateEEC2ERKS4_.exit: ; preds = %1, %11, %14
  %16 = phi ptr [ %4, %1 ], [ %4, %11 ], [ %.pre, %14 ]
  %17 = getelementptr inbounds nuw i8, ptr %16, i64 40
  %18 = tail call noundef i32 @pthread_mutex_lock(ptr noundef nonnull align 8 dereferenceable(40) %17) #33
  %.not.i.i = icmp eq i32 %18, 0
  br i1 %.not.i.i, label %_ZNSt10lock_guardISt5mutexEC2ERS0_.exit, label %19

19:                                               ; preds = %_ZNSt10shared_ptrIN5arrow8internal14SerialExecutor5StateEEC2ERKS4_.exit
  invoke void @_ZSt20__throw_system_errori(i32 noundef %18) #34
          to label %.noexc unwind label %45

.noexc:                                           ; preds = %19
  unreachable

_ZNSt10lock_guardISt5mutexEC2ERS0_.exit:          ; preds = %_ZNSt10shared_ptrIN5arrow8internal14SerialExecutor5StateEEC2ERKS4_.exit
  %20 = getelementptr inbounds nuw i8, ptr %16, i64 137
  store i8 1, ptr %20, align 1, !tbaa !32
  %21 = tail call noundef i32 @pthread_mutex_unlock(ptr noundef nonnull align 8 dereferenceable(40) %17) #33
  %22 = getelementptr inbounds nuw i8, ptr %16, i64 80
  tail call void @_ZNSt18condition_variable10notify_oneEv(ptr noundef nonnull align 8 dereferenceable(48) %22) #33
  %23 = load ptr, ptr %5, align 8, !tbaa !33
  %.not.i.i2 = icmp eq ptr %23, null
  br i1 %.not.i.i2, label %_ZNSt12__shared_ptrIN5arrow8internal14SerialExecutor5StateELN9__gnu_cxx12_Lock_policyE2EED2Ev.exit, label %24

24:                                               ; preds = %_ZNSt10lock_guardISt5mutexEC2ERS0_.exit
  %25 = getelementptr inbounds nuw i8, ptr %23, i64 8
  %26 = load atomic i64, ptr %25 acquire, align 8
  %27 = icmp eq i64 %26, 4294967297
  %28 = trunc i64 %26 to i32
  br i1 %27, label %29, label %37

29:                                               ; preds = %24
  store i32 0, ptr %25, align 8, !tbaa !9
  %30 = getelementptr inbounds nuw i8, ptr %23, i64 12
  store i32 0, ptr %30, align 4, !tbaa !13
  %31 = load ptr, ptr %23, align 8, !tbaa !3
  %32 = getelementptr inbounds nuw i8, ptr %31, i64 16
  %33 = load ptr, ptr %32, align 8
  tail call void %33(ptr noundef nonnull align 8 dereferenceable(16) %23) #33
  %34 = load ptr, ptr %23, align 8, !tbaa !3
  %35 = getelementptr inbounds nuw i8, ptr %34, i64 24
  %36 = load ptr, ptr %35, align 8
  tail call void %36(ptr noundef nonnull align 8 dereferenceable(16) %23) #33
  br label %_ZNSt12__shared_ptrIN5arrow8internal14SerialExecutor5StateELN9__gnu_cxx12_Lock_policyE2EED2Ev.exit

37:                                               ; preds = %24
  %38 = load i8, ptr @__libc_single_threaded, align 1, !tbaa !40
  %.not.i.i.i3 = icmp eq i8 %38, 0
  br i1 %.not.i.i.i3, label %41, label %39

39:                                               ; preds = %37
  %40 = add nsw i32 %28, -1
  store i32 %40, ptr %25, align 4, !tbaa !41
  br label %_ZN9__gnu_cxx27__exchange_and_add_dispatchEPii.exit.i.i.i

41:                                               ; preds = %37
  %42 = atomicrmw volatile add ptr %25, i32 -1 acq_rel, align 4
  br label %_ZN9__gnu_cxx27__exchange_and_add_dispatchEPii.exit.i.i.i

_ZN9__gnu_cxx27__exchange_and_add_dispatchEPii.exit.i.i.i: ; preds = %41, %39
  %.0.i.i.i.i = phi i32 [ %28, %39 ], [ %42, %41 ]
  %43 = icmp eq i32 %.0.i.i.i.i, 1
  br i1 %43, label %44, label %_ZNSt12__shared_ptrIN5arrow8internal14SerialExecutor5StateELN9__gnu_cxx12_Lock_policyE2EED2Ev.exit, !prof !43

44:                                               ; preds = %_ZN9__gnu_cxx27__exchange_and_add_dispatchEPii.exit.i.i.i
  tail call void @_ZNSt16_Sp_counted_baseILN9__gnu_cxx12_Lock_policyE2EE24_M_release_last_use_coldEv(ptr noundef nonnull align 8 dereferenceable(16) %23) #33
  br label %_ZNSt12__shared_ptrIN5arrow8internal14SerialExecutor5StateELN9__gnu_cxx12_Lock_policyE2EED2Ev.exit

_ZNSt12__shared_ptrIN5arrow8internal14SerialExecutor5StateELN9__gnu_cxx12_Lock_policyE2EED2Ev.exit: ; preds = %_ZNSt10lock_guardISt5mutexEC2ERS0_.exit, %29, %_ZN9__gnu_cxx27__exchange_and_add_dispatchEPii.exit.i.i.i, %44
  call void @llvm.lifetime.end.p0(i64 16, ptr nonnull %2) #33
  ret void

45:                                               ; preds = %19
  %46 = landingpad { ptr, i32 }
          cleanup
  call void @_ZNSt12__shared_ptrIN5arrow8internal14SerialExecutor5StateELN9__gnu_cxx12_Lock_policyE2EED2Ev(ptr noundef nonnull align 8 dereferenceable(16) %2) #33
  call void @llvm.lifetime.end.p0(i64 16, ptr nonnull %2) #33
  resume { ptr, i32 } %46
}